; Function Attrs: mustprogress nofree norecurse nosync nounwind willreturn memory(read, inaccessiblemem: none) uwtable
define hidden noundef nonnull align 8 dereferenceable(20) ptr @_ZNK7datalog17rule_dependencies8get_depsEP9func_decl(ptr noundef nonnull readonly align 8 captures(ret: address, provenance) dereferenceable(88) %0, ptr noundef readonly captures(address) %1) local_unnamed_addr #9 align 2 {
  %3 = getelementptr inbounds nuw i8, ptr %1, i64 12
  %4 = load i32, ptr %3, align 4, !tbaa !55
  %5 = getelementptr inbounds nuw i8, ptr %0, i64 8
  %6 = load i32, ptr %5, align 8, !tbaa !10
  %7 = add i32 %6, -1
  %8 = and i32 %7, %4
  %9 = load ptr, ptr %0, align 8, !tbaa !3
  %10 = zext i32 %8 to i64
  %11 = getelementptr inbounds nuw %"class.obj_map<func_decl, obj_hashtable<func_decl> *>::obj_map_entry", ptr %9, i64 %10
  %12 = zext i32 %6 to i64
  %13 = getelementptr inbounds nuw %"class.obj_map<func_decl, obj_hashtable<func_decl> *>::obj_map_entry", ptr %9, i64 %12
  %.not35.i.i = icmp eq i32 %8, %6
  br i1 %.not35.i.i, label %.preheader.i.i, label %.lr.ph.i.i

.preheader.i.i:                                   ; preds = %20, %2
  %.not2737.i.i = icmp eq i32 %8, 0
  br i1 %.not2737.i.i, label %.loopexit, label %.lr.ph39.i.i

.lr.ph.i.i:                                       ; preds = %2, %20
  %.036.i.i = phi ptr [ %21, %20 ], [ %11, %2 ]
  %14 = load ptr, ptr %.036.i.i, align 8, !tbaa !44
  %magicptr30.i.i = ptrtoint ptr %14 to i64
  switch i64 %magicptr30.i.i, label %15 [
    i64 0, label %.loopexit
    i64 1, label %20
  ]

15:                                               ; preds = %.lr.ph.i.i
  %16 = getelementptr inbounds nuw i8, ptr %14, i64 12
  %17 = load i32, ptr %16, align 4, !tbaa !55
  %18 = icmp eq i32 %17, %4
  %19 = icmp eq ptr %14, %1
  %or.cond.i.i = and i1 %19, %18
  br i1 %or.cond.i.i, label %_ZNK7obj_mapI9func_declP13obj_hashtableIS0_EE9find_coreEPS0_.exit, label %20

20:                                               ; preds = %15, %.lr.ph.i.i
  %21 = getelementptr inbounds nuw i8, ptr %.036.i.i, i64 16
  %.not.i.i = icmp eq ptr %21, %13
  br i1 %.not.i.i, label %.preheader.i.i, label %.lr.ph.i.i, !llvm.loop !69

.lr.ph39.i.i:                                     ; preds = %.preheader.i.i, %28
  %.138.i.i = phi ptr [ %29, %28 ], [ %9, %.preheader.i.i ]
  %22 = load ptr, ptr %.138.i.i, align 8, !tbaa !44
  %magicptr32.i.i = ptrtoint ptr %22 to i64
  switch i64 %magicptr32.i.i, label %23 [
    i64 0, label %.loopexit
    i64 1, label %28
  ]

23:                                               ; preds = %.lr.ph39.i.i
  %24 = getelementptr inbounds nuw i8, ptr %22, i64 12
  %25 = load i32, ptr %24, align 4, !tbaa !55
  %26 = icmp eq i32 %25, %4
  %27 = icmp eq ptr %22, %1
  %or.cond31.i.i = and i1 %27, %26
  br i1 %or.cond31.i.i, label %_ZNK7obj_mapI9func_declP13obj_hashtableIS0_EE9find_coreEPS0_.exit, label %28

28:                                               ; preds = %23, %.lr.ph39.i.i
  %29 = getelementptr inbounds nuw i8, ptr %.138.i.i, i64 16
  %.not27.i.i = icmp eq ptr %29, %11
  br i1 %.not27.i.i, label %.loopexit, label %.lr.ph39.i.i, !llvm.loop !124

.loopexit:                                        ; preds = %.lr.ph.i.i, %.lr.ph39.i.i, %28, %.preheader.i.i
  %30 = getelementptr inbounds nuw i8, ptr %0, i64 64
  br label %33

_ZNK7obj_mapI9func_declP13obj_hashtableIS0_EE9find_coreEPS0_.exit: ; preds = %15, %23
  %.026.i.i = phi ptr [ %.138.i.i, %23 ], [ %.036.i.i, %15 ]
  %31 = getelementptr inbounds nuw i8, ptr %.026.i.i, i64 8
  %32 = load ptr, ptr %31, align 8, !tbaa !51
  br label %33

33:                                               ; preds = %_ZNK7obj_mapI9func_declP13obj_hashtableIS0_EE9find_coreEPS0_.exit, %.loopexit
  %.0 = phi ptr [ %32, %_ZNK7obj_mapI9func_declP13obj_hashtableIS0_EE9find_coreEPS0_.exit ], [ %30, %.loopexit ]
  ret ptr %.0
}